; Function Attrs: mustprogress uwtable
define hidden noundef i32 @_ZN7nanogui13TabWidgetBase10append_tabERKNSt7__cxx1112basic_stringIcSt11char_traitsIcESaIcEEE(ptr noundef nonnull align 8 dereferenceable(416) %0, ptr noundef nonnull align 8 dereferenceable(32) %1) local_unnamed_addr #0 align 2 {
  %3 = getelementptr inbounds i8, ptr %0, i64 176
  %4 = getelementptr inbounds i8, ptr %0, i64 184
  %5 = load ptr, ptr %4, align 8
  %6 = load ptr, ptr %3, align 8
  %7 = ptrtoint ptr %5 to i64
  %8 = ptrtoint ptr %6 to i64
  %9 = sub i64 %7, %8
  %10 = lshr exact i64 %9, 5
  %11 = trunc i64 %10 to i32
  %12 = tail call noundef i32 @_ZN7nanogui13TabWidgetBase10insert_tabEiRKNSt7__cxx1112basic_stringIcSt11char_traitsIcESaIcEEE(ptr noundef nonnull align 8 dereferenceable(416) %0, i32 noundef %11, ptr noundef nonnull align 8 dereferenceable(32) %1)
  ret i32 %12
}